; Function Attrs: mustprogress uwtable
define void @_ZN22MLThreadSafeMemoryInfo14acquiredMemoryEl(ptr noundef nonnull align 8 dereferenceable(32) %0, i64 noundef %1) unnamed_addr #1 align 2 personality ptr @__gxx_personality_v0 {
  %3 = getelementptr inbounds i8, ptr %0, i64 24
  tail call void @_ZN14QReadWriteLock12lockForWriteEv(ptr noundef nonnull align 8 dereferenceable(8) %3)
  %4 = getelementptr inbounds i8, ptr %0, i64 16
  %5 = load i64, ptr %4, align 8
  %6 = sub nsw i64 %5, %1
  store i64 %6, ptr %4, align 8
  invoke void @_ZN14QReadWriteLock6unlockEv(ptr noundef nonnull align 8 dereferenceable(8) %3)
          to label %_ZN12QWriteLockerD2Ev.exit unwind label %7

7:                                                ; preds = %2
  %8 = landingpad { ptr, i32 }
          catch ptr null
  %9 = extractvalue { ptr, i32 } %8, 0
  tail call void @__clang_call_terminate(ptr %9) #8
  unreachable

_ZN12QWriteLockerD2Ev.exit:                       ; preds = %2
  ret void
}